(dp0
(S'VBP'
p1
S'NNP'
p2
tp3
I220
s(S'.'
p4
S'IN'
p5
tp6
I3
s(S'NNP'
p7
g4
tp8
I4987
s(S'VBZ'
p9
S'STOP'
p10
tp11
I1
s(S'VBP'
p12
S'$'
p13
tp14
I33
s(S'WDT'
p15
S'NN'
p16
tp17
I72
s(S'RBR'
p18
S'CC'
p19
tp20
I39
s(S'-LRB-'
p21
S'PRP$'
p22
tp23
I7
s(S'IN'
p24
S'NN'
p25
tp26
I10734
s(S'IN'
p27
S'JJR'
p28
tp29
I472
s(S','
p30
S'WDT'
p31
tp32
I1743
s(S'VBG'
p33
S'NNS'
p34
tp35
I1317
s(S'PRP$'
p36
S'NNP'
p37
tp38
I408
s(S'RBS'
p39
S'DT'
p40
tp41
I1
s(S'DT'
p42
S'JJS'
p43
tp44
I762
s(S'JJR'
p45
S'-RRB-'
p46
tp47
I2
s(S'VBN'
p48
S'PRP'
p49
tp50
I189
s(S':'
p51
S'RBS'
p52
tp53
I4
s(S'NNS'
p54
S'PRP$'
p55
tp56
I13
s(S'TO'
p57
S'RBS'
p58
tp59
I1
s(S'MD'
p60
g4
tp61
I21
s(S'-LRB-'
p62
S'JJ'
p63
tp64
I64
s(S'CD'
p65
S'VBG'
p66
tp67
I59
s(S'MD'
p68
S'MD'
p69
tp70
I2
s(S'RB'
p71
S'VBZ'
p72
tp73
I1223
s(S'EX'
p74
S'VB'
p75
tp76
I2
s(S'RBR'
p77
S'VBP'
p78
tp79
I1
s(S'RBR'
p80
S'JJR'
p81
tp82
I1
s(S'NNPS'
p83
S'MD'
p84
tp85
I62
s(S'NNS'
p86
S'PRP'
p87
tp88
I274
s(S'PRP$'
p89
S'JJS'
p90
tp91
I86
s(S'JJS'
p92
S'NNPS'
p93
tp94
I3
s(S'VB'
p95
S'-RRB-'
p96
tp97
I12
s(S'CD'
p98
S'VBN'
p99
tp100
I116
s(S'VBZ'
p101
S'TO'
p102
tp103
I1081
s(g51
S'LS'
p104
tp105
I5
s(S'RBR'
p106
S'DT'
p107
tp108
I162
s(S'POS'
p109
S"''"
p110
tp111
I2
s(S'MD'
p112
S'-LRB-'
p113
tp114
I2
s(S'WDT'
p115
S'RB'
p116
tp117
I199
s(S'IN'
p118
S'RB'
p119
tp120
I1387
s(S'PRP'
p121
S'RP'
p122
tp123
I79
s(S'DT'
p124
S'RBS'
p125
tp126
I228
s(S'VBP'
p127
g10
tp128
I1
s(S'JJS'
p129
S'NNS'
p130
tp131
I295
s(g28
S'IN'
p132
tp133
I1038
s(S'DT'
p134
S'PRP$'
p135
tp136
I58
s(S'RP'
p137
S'RBR'
p138
tp139
I12
s(S'NN'
p140
S'WDT'
p141
tp142
I1039
s(g4
S'WRB'
p143
tp144
I1
s(S'CC'
p145
S'DT'
p146
tp147
I2698
s(S'VB'
p148
S'NNS'
p149
tp150
I1341
s(g30
S'MD'
p151
tp152
I501
s(g30
S'VB'
p153
tp154
I185
s(S'JJ'
p155
S'POS'
p156
tp157
I12
s(S'NNP'
p158
S'WRB'
p159
tp160
I49
s(S'POS'
p161
S'CD'
p162
tp163
I228
s(S'CC'
p164
S'PRP'
p165
tp166
I900
s(S'RB'
p167
S'PRP'
p168
tp169
I292
s(S'WP'
p170
S'VBZ'
p171
tp172
I536
s(S'NNS'
p173
g13
tp174
I18
s(S'VBG'
p175
S'NN'
p176
tp177
I1843
s(S'RP'
p178
S'VBN'
p179
tp180
I6
s(S"''"
p181
g51
tp182
I57
s(S'-RRB-'
p183
S'NNP'
p184
tp185
I49
s(S'WRB'
p186
S'VB'
p187
tp188
I4
s(S'JJ'
p189
S'MD'
p190
tp191
I26
s(S'JJ'
p192
S'PRP'
p193
tp194
I84
s(S'RBR'
p195
S'IN'
p196
tp197
I410
s(S'POS'
p198
g13
tp199
I87
s(S'CC'
p200
S'CC'
p201
tp202
I5
s(S'POS'
p203
S'CC'
p204
tp205
I60
s(S'-RRB-'
p206
S'PRP$'
p207
tp208
I1
s(S'NNP'
p209
S'CC'
p210
tp211
I3787
s(S'NNS'
p212
S'VB'
p213
tp214
I234
s(S'NNS'
p215
S'MD'
p216
tp217
I1676
s(S'VBG'
p218
S'NNPS'
p219
tp220
I11
s(g51
S'DT'
p221
tp222
I547
s(S'SYM'
p223
g51
tp224
I33
s(S'IN'
p225
S'EX'
p226
tp227
I156
s(S'VB'
p228
S'``'
p229
tp230
I150
s(S'CC'
p231
S'CD'
p232
tp233
I1047
s(S'NNS'
p234
S'WP$'
p235
tp236
I26
s(S'CC'
p237
S'``'
p238
tp239
I142
s(S"''"
p240
S'VB'
p241
tp242
I9
s(S'CD'
p243
S'POS'
p244
tp245
I25
s(S'NN'
p246
S'JJ'
p247
tp248
I1168
s(S'VB'
p249
S'WP$'
p250
tp251
I1
s(S'VBN'
p252
S'RBS'
p253
tp254
I5
s(S'PRP'
p255
S'DT'
p256
tp257
I208
s(S'IN'
p258
S'IN'
p259
tp260
I2012
s(S'NNS'
p261
S'CC'
p262
tp263
I3589
s(S'NNPS'
p264
S'WDT'
p265
tp266
I1
s(S'VBN'
p267
S'DT'
p268
tp269
I1371
s(S'NNP'
p270
S'JJR'
p271
tp272
I9
s(g30
S'JJ'
p273
tp274
I2029
s(S'*'
p275
S'WRB'
p276
tp277
I249
s(S'IN'
p278
S'PDT'
p279
tp280
I144
s(S"''"
p281
S'CC'
p282
tp283
I250
s(S'VBD'
p284
S'VBP'
p285
tp286
I4
s(S'PRP'
p287
S"''"
p288
tp289
I9
s(S'-LRB-'
p290
S'VBP'
p291
tp292
I1
s(S'JJR'
p293
S'TO'
p294
tp295
I79
s(S'VB'
p296
g10
tp297
I4
s(S"''"
p298
S'WP$'
p299
tp300
I2
s(S'CD'
p301
g4
tp302
I2634
s(g30
S'PRP$'
p303
tp304
I210
s(g275
S'PDT'
p305
tp306
I29
s(S'POS'
p307
S'NNPS'
p308
tp309
I33
s(S'NN'
p310
S'EX'
p311
tp312
I16
s(S'WRB'
p313
S'VBN'
p314
tp315
I18
s(S"''"
p316
S'CD'
p317
tp318
I16
s(S'PRP$'
p319
S'``'
p320
tp321
I41
s(g275
S'WDT'
p322
tp323
I31
s(S'TO'
p324
S'VBG'
p325
tp326
I162
s(S'JJS'
p327
S'CD'
p328
tp329
I144
s(S'JJ'
p330
S'WP'
p331
tp332
I16
s(S'RB'
p333
g10
tp334
I14
s(S'WP'
p335
S'JJ'
p336
tp337
I12
s(S'VBZ'
p338
S'JJR'
p339
tp340
I170
s(g275
S'-RRB-'
p341
tp342
I1
s(S'RP'
p343
S'NN'
p344
tp345
I132
s(S'VBP'
p346
S'RBS'
p347
tp348
I11
s(S'JJ'
p349
S'JJS'
p350
tp351
I22
s(S'RP'
p352
S'``'
p353
tp354
I14
s(S'MD'
p355
S'JJ'
p356
tp357
I3
s(S'PDT'
p358
S'PRP$'
p359
tp360
I26
s(S'POS'
p361
S'FW'
p362
tp363
I2
s(S'-LRB-'
p364
S'FW'
p365
tp366
I4
s(S'VB'
p367
S'CD'
p368
tp369
I541
s(g51
S'FW'
p370
tp371
I1
s(g31
S'VBD'
p372
tp373
I987
s(S'-LRB-'
p374
S'LS'
p375
tp376
I2
s(S'NN'
p377
S"''"
p378
tp379
I686
s(S'VBN'
p380
S'VBZ'
p381
tp382
I34
s(S'NNS'
p383
S'NNS'
p384
tp385
I630
s(S'WRB'
p386
S'DT'
p387
tp388
I526
s(g275
S'EX'
p389
tp390
I168
s(S'RP'
p391
S'PRP'
p392
tp393
I2
s(S'RP'
p394
S'MD'
p395
tp396
I1
s(S'WP'
p397
S'WDT'
p398
tp399
I1
s(S'``'
p400
S'JJ'
p401
tp402
I812
s(S'CD'
p403
g10
tp404
I23
s(S'WRB'
p405
S'NNS'
p406
tp407
I164
s(S'CC'
p408
S'RBS'
p409
tp410
I22
s(S'WP'
p411
S'-RRB-'
p412
tp413
I3
s(S'CC'
p414
S'NNPS'
p415
tp416
I88
s(S'CC'
p417
S'JJS'
p418
tp419
I47
s(S'VBN'
p420
g51
tp421
I72
s(g275
S'UH'
p422
tp423
I23
s(S'TO'
p424
g30
tp425
I16
s(S'NNS'
p426
S'VBZ'
p427
tp428
I486
s(S'SYM'
p429
S'RB'
p430
tp431
I2
s(g4
S'VBN'
p432
tp433
I1
s(S'LS'
p434
g51
tp435
I5
s(S'TO'
p436
S'WDT'
p437
tp438
I17
s(S'NNPS'
p439
S'EX'
p440
tp441
I1
s(S'RBR'
p442
S'NNS'
p443
tp444
I1
s(S'JJ'
p445
S'CC'
p446
tp447
I1056
s(S'VBP'
p448
S'RB'
p449
tp450
I2070
s(S'-LRB-'
p451
S'EX'
p452
tp453
I2
s(S'DT'
p454
g10
tp455
I7
s(g418
S'VB'
p456
tp457
I4
s(S'-RRB-'
p458
S'CD'
p459
tp460
I11
s(g387
S'IN'
p461
tp462
I791
s(S'TO'
p463
S'PRP$'
p464
tp465
I298
s(S'VBG'
p466
S'RBS'
p467
tp468
I1
s(S'VBZ'
p469
S'RBS'
p470
tp471
I20
s(S'WRB'
p472
S'``'
p473
tp474
I4
s(S'JJR'
p475
S'VBN'
p476
tp477
I7
s(S'IN'
p478
S'PRP$'
p479
tp480
I3569
s(S'VBN'
p481
S'VBG'
p482
tp483
I411
s(g4
S'MD'
p484
tp485
I1
s(S'NNS'
p486
S'``'
p487
tp488
I135
s(S'CD'
p489
S'NN'
p490
tp491
I7377
s(S'NNPS'
p492
S'NNS'
p493
tp494
I30
s(S'JJS'
p495
S'IN'
p496
tp497
I300
s(S'-LRB-'
p498
S'NNS'
p499
tp500
I21
s(S'NNP'
p501
S'MD'
p502
tp503
I1024
s(S'NNP'
p504
S'PDT'
p505
tp506
I1
s(S'CD'
p507
g30
tp508
I3566
s(S'VBG'
p509
S'VBP'
p510
tp511
I9
s(S'WDT'
p512
S'VB'
p513
tp514
I6
s(S'WP'
p515
S'RB'
p516
tp517
I106
s(S'VBN'
p518
S"''"
p519
tp520
I39
s(S'PRP'
p521
S'NNPS'
p522
tp523
I1
s(S'RP'
p524
S'JJR'
p525
tp526
I13
s(g4
S'VBP'
p527
tp528
I1
s(S'PRP'
p529
S'WDT'
p530
tp531
I5
s(g51
S'VBZ'
p532
tp533
I87
s(S'VB'
p534
S'WDT'
p535
tp536
I19
s(S'VBG'
p537
S'VBN'
p538
tp539
I390
s(S'NNPS'
p540
S'RB'
p541
tp542
I40
s(S'JJR'
p543
S'-LRB-'
p544
tp545
I1
s(g51
g495
tp546
I5
s(S'PRP$'
p547
S'RB'
p548
tp549
I46
s(S'RBS'
p550
S'IN'
p551
tp552
I19
s(S'EX'
p553
S'POS'
p554
tp555
I11
s(g30
S'RB'
p556
tp557
I2624
s(g275
S'VBD'
p558
tp559
I33
s(S'VBD'
p560
S'VBN'
p561
tp562
I2887
s(S'WRB'
p563
S'NN'
p564
tp565
I119
s(S'``'
p566
S'CC'
p567
tp568
I130
s(S'RBS'
p569
S'VBD'
p570
tp571
I1
s(S'VBN'
p572
S'CD'
p573
tp574
I232
s(S'VB'
p575
S'JJR'
p576
tp577
I292
s(S'NN'
p578
S'DT'
p579
tp580
I901
s(S'IN'
p581
g4
tp582
I186
s(S'PRP$'
p583
S'VBN'
p584
tp585
I54
s(g51
S'SYM'
p586
tp587
I1
s(S'RB'
p588
S'CD'
p589
tp590
I1210
s(S'VBZ'
p591
S'-LRB-'
p592
tp593
I7
s(S'IN'
p594
S'JJS'
p595
tp596
I463
s(S'CD'
p597
S'SYM'
p598
tp599
I2
s(S'WP'
p600
S'RBR'
p601
tp602
I2
s(S'JJS'
p603
S'JJ'
p604
tp605
I202
s(S'PRP$'
p606
S'NNS'
p607
tp608
I1638
s(S'DT'
p609
S'NNPS'
p610
tp611
I416
s(g30
S'NNS'
p612
tp613
I1294
s(S'RB'
p614
S'VBD'
p615
tp616
I1668
s(S'VBN'
p617
S'CC'
p618
tp619
I278
s(S'-LRB-'
p620
S'NNPS'
p621
tp622
I3
s(S'UH'
p623
g30
tp624
I47
s(S'POS'
p625
S'PRP$'
p626
tp627
I2
s(S'NNPS'
p628
S'NNPS'
p629
tp630
I42
s(S'WRB'
p631
g13
tp632
I1
s(S'RBR'
p633
S'VBZ'
p634
tp635
I4
s(S'VBG'
p636
S'DT'
p637
tp638
I2779
s(S'NN'
p639
S'VB'
p640
tp641
I186
s(S'WP'
p642
S'VBN'
p643
tp644
I2
s(S'PRP'
p645
S'JJ'
p646
tp647
I140
s(S'VBG'
p648
S'VBD'
p649
tp650
I46
s(S'IN'
p651
S'#'
p652
tp653
I59
s(S'CD'
p654
S'VBD'
p655
tp656
I227
s(S'TO'
p657
g51
tp658
I2
s(g275
S'RBR'
p659
tp660
I84
s(S'CC'
p661
S'-LRB-'
p662
tp663
I9
s(S'VBN'
p664
g30
tp665
I654
s(S'NN'
p666
S'PDT'
p667
tp668
I2
s(S'VBG'
p669
S'CD'
p670
tp671
I248
s(S'JJ'
p672
S'RB'
p673
tp674
I223
s(S'NNPS'
p675
S'NN'
p676
tp677
I102
s(S'IN'
p678
g33
tp679
I3067
s(S'CC'
p680
S'VBN'
p681
tp682
I343
s(S'CC'
p683
S'PDT'
p684
tp685
I14
s(g51
S'NN'
p686
tp687
I188
s(S'PRP$'
p688
S'JJR'
p689
tp690
I25
s(S'-RRB-'
p691
S'FW'
p692
tp693
I1
s(S'RB'
p694
S'-RRB-'
p695
tp696
I13
s(S'CC'
p697
S'NNS'
p698
tp699
I1715
s(S'VB'
p700
S'WRB'
p701
tp702
I141
s(g30
S'WP'
p703
tp704
I603
s(S'NNS'
p705
S'IN'
p706
tp707
I14057
s(S'TO'
p708
g609
tp709
I2510
s(S'RP'
p710
S'IN'
p711
tp712
I659
s(S'NN'
p713
S'CD'
p714
tp715
I795
s(S'RP'
p716
S'VBD'
p717
tp718
I3
s(S'RB'
p719
S'WP'
p720
tp721
I36
s(S'RB'
p722
S'JJR'
p723
tp724
I394
s(S'JJR'
p725
S'NNPS'
p726
tp727
I2
s(S'WP'
p728
S'TO'
p729
tp730
I16
s(S'PRP'
p731
S'VBD'
p732
tp733
I4308
s(S'JJR'
p734
g51
tp735
I12
s(S'NN'
p736
S'RBS'
p737
tp738
I11
s(S'TO'
p739
S"''"
p740
tp741
I3
s(S'RBR'
p742
S'VBG'
p743
tp744
I9
s(S'NNS'
p745
S'NNPS'
p746
tp747
I2
s(S'WRB'
p748
g30
tp749
I27
s(S'VBP'
p750
S'PRP$'
p751
tp752
I133
s(S"''"
p753
S'NN'
p754
tp755
I242
s(g275
S'-LRB-'
p756
tp757
I144
s(g275
S'``'
p758
tp759
I3003
s(S'PRP'
p760
S'``'
p761
tp762
I61
s(S'JJS'
p763
S'NN'
p764
tp765
I696
s(S"''"
p766
S'VBN'
p767
tp768
I36
s(S'RB'
p769
S'NNPS'
p770
tp771
I9
s(S'VBN'
p772
g13
tp773
I120
s(S'TO'
p774
S'``'
p775
tp776
I84
s(S'RB'
p777
S'VB'
p778
tp779
I3185
s(S'VBG'
p780
g672
tp781
I1083
s(g561
S'NNP'
p782
tp783
I526
s(S'IN'
p784
S'VBP'
p785
tp786
I26
s(g51
S'WP$'
p787
tp788
I1
s(S'NNP'
p789
S'EX'
p790
tp791
I2
s(S'RP'
p792
S'PDT'
p793
tp794
I3
s(S'JJS'
p795
g51
tp796
I9
s(S"''"
p797
S'VBG'
p798
tp799
I61
s(S'POS'
p800
g4
tp801
I42
s(S'VBD'
p802
S'RP'
p803
tp804
I470
s(S'RB'
p805
S'NNS'
p806
tp807
I134
s(S'VBG'
p808
S'PRP$'
p809
tp810
I455
s(S'NNPS'
p811
S'VBG'
p812
tp813
I11
s(S'TO'
p814
S'CC'
p815
tp816
I10
s(g437
S'NNP'
p817
tp818
I92
s(S'WDT'
p819
g13
tp820
I3
s(S'-LRB-'
p821
S'CC'
p822
tp823
I34
s(S'VBZ'
p824
S'RP'
p825
tp826
I158
s(S'CC'
p827
S'NN'
p828
tp829
I2856
s(S'NNPS'
p830
S'VBN'
p831
tp832
I7
s(S'VBN'
p833
S'RP'
p834
tp835
I429
s(S'JJS'
p836
S'VBZ'
p837
tp838
I6
s(S'VBZ'
p839
S'RBR'
p840
tp841
I85
s(g13
S'CD'
p842
tp843
I7309
s(S'NN'
p844
S'POS'
p845
tp846
I2903
s(S'UH'
p847
S'TO'
p848
tp849
I6
s(S'VBD'
p850
S'WP'
p851
tp852
I19
s(S'WRB'
p853
S'VBD'
p854
tp855
I13
s(g51
S'MD'
p856
tp857
I44
s(S'POS'
p858
g652
tp859
I5
s(S'NNPS'
p860
S'JJ'
p861
tp862
I16
s(S"''"
p863
S'NNPS'
p864
tp865
I1
s(S'NNS'
p866
S'POS'
p867
tp868
I547
s(g275
S'PRP'
p869
tp870
I2428
s(g652
S'CD'
p871
tp872
I141
s(g96
S'RB'
p873
tp874
I19
s(S'VBG'
p875
S'WDT'
p876
tp877
I3
s(S'WRB'
p878
S'CD'
p879
tp880
I14
s(S'CD'
p881
S'MD'
p882
tp883
I75
s(S'CC'
p884
g13
tp885
I472
s(S'VBD'
p886
S'JJR'
p887
tp888
I221
s(S'POS'
p889
S'RBS'
p890
tp891
I18
s(g378
S'IN'
p892
tp893
I591
s(S'TO'
p894
S'JJR'
p895
tp896
I68
s(S'VBG'
p897
S'UH'
p898
tp899
I3
s(S'VBZ'
p900
S'RB'
p901
tp902
I2916
s(S'JJS'
p903
g408
tp904
I17
s(g275
S"''"
p905
tp906
I16
s(S'PRP'
p907
g51
tp908
I58
s(S'VBZ'
p909
S'JJS'
p910
tp911
I14
s(S'VB'
p912
S'VB'
p913
tp914
I130
s(S'JJ'
p915
S'NNP'
p916
tp917
I2276
s(S'WDT'
p918
S'JJ'
p919
tp920
I36
s(S'VBZ'
p921
S'VBD'
p922
tp923
I59
s(S'NNS'
p924
S'EX'
p925
tp926
I5
s(S'PRP$'
p927
g4
tp928
I1
s(S'WRB'
p929
S'PDT'
p930
tp931
I4
s(S'CD'
p932
g705
tp933
I5737
s(S'JJR'
p934
S'``'
p935
tp936
I4
s(S'VB'
p937
S'EX'
p938
tp939
I14
s(g275
S'IN'
p940
tp941
I5050
s(g275
S'DT'
p942
tp943
I8645
s(g4
S'DT'
p944
tp945
I4
s(S'RP'
p946
S'NNS'
p947
tp948
I127
s(S"''"
p949
g4
tp950
I16
s(S'JJS'
p951
g4
tp952
I22
s(S'RB'
p953
g652
tp954
I11
s(S'FW'
p955
g51
tp956
I3
s(S'-RRB-'
p957
S'NN'
p958
tp959
I67
s(S'CD'
p960
S'RBS'
p961
tp962
I9
s(S'PRP$'
p963
S'RBS'
p964
tp965
I17
s(S'SYM'
p966
S'IN'
p967
tp968
I2
s(S'JJS'
p969
S'EX'
p970
tp971
I3
s(S'VBD'
p972
S'CD'
p973
tp974
I1979
s(S'FW'
p975
S'MD'
p976
tp977
I2
s(S'-RRB-'
p978
S'VBZ'
p979
tp980
I68
s(S'``'
p981
S'PRP$'
p982
tp983
I82
s(S'RBR'
p984
S'PRP'
p985
tp986
I7
s(S'JJ'
p987
S'EX'
p988
tp989
I4
s(g19
S'RBR'
p990
tp991
I65
s(S'-RRB-'
p992
S'MD'
p993
tp994
I31
s(S'POS'
p995
S'DT'
p996
tp997
I2
s(S'RBS'
p998
S'TO'
p999
tp1000
I4
s(S'CD'
p1001
S'VBP'
p1002
tp1003
I39
s(S'VB'
p1004
g4
tp1005
I640
s(S'NN'
p1006
S'WRB'
p1007
tp1008
I319
s(S'WDT'
p1009
S'IN'
p1010
tp1011
I37
s(S'CC'
p1012
S'JJR'
p1013
tp1014
I249
s(S'JJR'
p1015
S'VBP'
p1016
tp1017
I5
s(S'RB'
p1018
S'PDT'
p1019
tp1020
I20
s(g275
S'VBP'
p1021
tp1022
I14
s(S'FW'
p1023
S'POS'
p1024
tp1025
I2
s(S'WP$'
p1026
S'VBG'
p1027
tp1028
I2
s(g30
S'VBD'
p1029
tp1030
I2555
s(S'JJR'
p1031
S'PRP'
p1032
tp1033
I7
s(S'DT'
p1034
S'CD'
p1035
tp1036
I1876
s(S'PRP'
p1037
S'MD'
p1038
tp1039
I2146
s(g30
S'WRB'
p1040
tp1041
I404
s(S'PRP'
p1042
S'WP'
p1043
tp1044
I11
s(S'JJR'
p1045
S'DT'
p1046
tp1047
I20
s(S'VBG'
p1048
S'RBR'
p1049
tp1050
I71
s(S'VBG'
p1051
S'RB'
p1052
tp1053
I562
s(S'VBZ'
p1054
S'NNPS'
p1055
tp1056
I7
s(g4
S'UH'
p1057
tp1058
I2
s(S'VBP'
p1059
g51
tp1060
I37
s(S'JJ'
p1061
g458
tp1062
I34
s(S'RBS'
p1063
S'NNS'
p1064
tp1065
I2
s(S'CD'
p1066
g51
tp1067
I257
s(S'VBD'
p1068
S'-RRB-'
p1069
tp1070
I3
s(S'NNPS'
p1071
S'NNP'
p1072
tp1073
I741
s(g51
S'WRB'
p1074
tp1075
I31
s(S'NNS'
p1076
g10
tp1077
I59
s(S"''"
p1078
S'NNP'
p1079
tp1080
I426
s(S'-LRB-'
p1081
g13
tp1082
I231
s(S'SYM'
p1083
S'NN'
p1084
tp1085
I3
s(S'-RRB-'
p1086
S'VBG'
p1087
tp1088
I6
s(S'VBP'
p1089
S'NN'
p1090
tp1091
I377
s(S'MD'
p1092
S'IN'
p1093
tp1094
I19
s(S'VBP'
p1095
g57
tp1096
I642
s(g51
S'PDT'
p1097
tp1098
I1
s(S'VBP'
p1099
g30
tp1100
I249
s(S'CD'
p1101
S'TO'
p1102
tp1103
I1371
s(S'CC'
p1104
S'VBZ'
p1105
tp1106
I552
s(S'VBZ'
p1107
S"''"
p1108
tp1109
I3
s(S'RB'
p1110
S'JJ'
p1111
tp1112
I3200
s(S'RP'
p1113
g13
tp1114
I24
s(S'VBG'
p1115
S'RP'
p1116
tp1117
I396
s(S'JJ'
p1118
S'VBP'
p1119
tp1120
I52
s(S'RP'
p1121
S'-LRB-'
p1122
tp1123
I1
s(S'VBN'
p1124
S'IN'
p1125
tp1126
I7331
s(S'SYM'
p1127
S'NNP'
p1128
tp1129
I2
s(S'RB'
p1130
S'VBN'
p1131
tp1132
I2431
s(S'NNP'
p1133
S'DT'
p1134
tp1135
I220
s(S'-RRB-'
p1136
S'JJ'
p1137
tp1138
I19
s(S'MD'
p1139
S'VB'
p1140
tp1141
I7818
s(S'VBD'
p1142
S'EX'
p1143
tp1144
I36
s(S'DT'
p1145
S'DT'
p1146
tp1147
I124
s(g940
S'DT'
p1148
tp1149
I32359
s(S'VBP'
p1150
S'MD'
p1151
tp1152
I20
s(S'PRP'
p1153
S'JJR'
p1154
tp1155
I23
s(S'PRP$'
p1156
S'-LRB-'
p1157
tp1158
I8
s(S'UH'
p1159
S'IN'
p1160
tp1161
I1
s(S'WP'
p1162
S'``'
p1163
tp1164
I2
s(g449
g636
tp1165
I926
s(S'WP'
p1166
S'CD'
p1167
tp1168
I3
s(S'PRP'
p1169
S'RBR'
p1170
tp1171
I27
s(S'-LRB-'
p1172
S'IN'
p1173
tp1174
I113
s(S'RBR'
p1175
S'MD'
p1176
tp1177
I3
s(S'CC'
p1178
S'FW'
p1179
tp1180
I3
s(S'NNPS'
p1181
S'JJR'
p1182
tp1183
I1
s(S'RBR'
p1184
S'WRB'
p1185
tp1186
I1
s(S'FW'
p1187
S'FW'
p1188
tp1189
I56
s(g51
g30
tp1190
I3
s(S'VBN'
p1191
S'-RRB-'
p1192
tp1193
I18
s(S'CC'
p1194
S'VBD'
p1195
tp1196
I912
s(g1007
S'PRP$'
p1197
tp1198
I53
s(S'NN'
p1199
S'SYM'
p1200
tp1201
I4
s(g51
S'IN'
p1202
tp1203
I356
s(S'PRP$'
p1204
S'NN'
p1205
tp1206
I3744
s(S'PRP'
p1207
S'PRP$'
p1208
tp1209
I2
s(S'VBP'
p1210
S'VBZ'
p1211
tp1212
I36
s(g259
g932
tp1213
I5847
s(S"''"
p1214
S'VBZ'
p1215
tp1216
I870
s(g275
S'RBS'
p1217
tp1218
I22
s(S'JJ'
p1219
g258
tp1220
I3405
s(S'UH'
p1221
S'PRP'
p1222
tp1223
I1
s(S'VBG'
p1224
S'CC'
p1225
tp1226
I138
s(S'EX'
p1227
S'MD'
p1228
tp1229
I73
s(S'NNP'
p1230
g10
tp1231
I124
s(S'NNP'
p1232
S'``'
p1233
tp1234
I102
s(S'VBD'
p1235
S'TO'
p1236
tp1237
I1701
s(S'-LRB-'
p1238
S'VB'
p1239
tp1240
I20
s(S'NN'
p1241
S'JJS'
p1242
tp1243
I6
s(S'IN'
p1244
S'VBD'
p1245
tp1246
I61
s(S'JJR'
p1247
S'MD'
p1248
tp1249
I4
s(S'NNPS'
p1250
S'VB'
p1251
tp1252
I2
s(g30
S'NNP'
p1253
tp1254
I6195
s(S'RB'
p1255
S'IN'
p1256
tp1257
I3968
s(S'VBP'
p1258
S"''"
p1259
tp1260
I5
s(g138
S'TO'
p1261
tp1262
I30
s(S'RP'
p1263
S'VBZ'
p1264
tp1265
I1
s(S'WDT'
p1266
S'``'
p1267
tp1268
I2
s(S'VBN'
p1269
S'JJ'
p1270
tp1271
I876
s(S'UH'
p1272
S'NN'
p1273
tp1274
I2
s(S'VB'
p1275
S'-LRB-'
p1276
tp1277
I30
s(S'DT'
p1278
S'RBR'
p1279
tp1280
I141
s(S'CD'
p1281
S'IN'
p1282
tp1283
I3291
s(S'RP'
p1284
g4
tp1285
I166
s(S'RBS'
p1286
S'-LRB-'
p1287
tp1288
I1
s(S'FW'
p1289
S'VBP'
p1290
tp1291
I1
s(g490
S'IN'
p1292
tp1293
I32885
s(S'VBP'
p1294
S'IN'
p1295
tp1296
I1141
s(S'VBN'
p1297
S'PRP$'
p1298
tp1299
I188
s(S'MD'
p1300
g30
tp1301
I33
s(S'NN'
p1302
S'RBR'
p1303
tp1304
I348
s(g621
S'-RRB-'
p1305
tp1306
I6
s(S'NNPS'
p1307
S'VBZ'
p1308
tp1309
I71
s(S'FW'
p1310
S'DT'
p1311
tp1312
I2
s(S'WP$'
p1313
S'NNS'
p1314
tp1315
I50
s(S'VB'
p1316
S'MD'
p1317
tp1318
I13
s(g30
S'EX'
p1319
tp1320
I123
s(S'VBD'
p1321
g652
tp1322
I3
s(S'EX'
p1323
S'VBP'
p1324
tp1325
I209
s(S'MD'
p1326
S'PRP$'
p1327
tp1328
I2
s(S'NN'
p1329
S'RP'
p1330
tp1331
I74
s(S'JJS'
p1332
S'-LRB-'
p1333
tp1334
I1
s(S'JJR'
p1335
S"''"
p1336
tp1337
I5
s(S'VBP'
p1338
S'VB'
p1339
tp1340
I39
s(S"''"
p1341
S'-LRB-'
p1342
tp1343
I47
s(g4
S"''"
p1344
tp1345
I2342
s(g247
S'NN'
p1346
tp1347
I27550
s(S'PRP'
p1348
S'-RRB-'
p1349
tp1350
I9
s(S'POS'
p1351
S'JJR'
p1352
tp1353
I19
s(S'PRP$'
p1354
S'CC'
p1355
tp1356
I5
s(S'VBG'
p1357
S"''"
p1358
tp1359
I32
s(S'WP'
p1360
S'JJS'
p1361
tp1362
I2
s(S'DT'
p1363
g13
tp1364
I757
s(S'POS'
p1365
S'VBD'
p1366
tp1367
I55
s(S'IN'
p1368
g51
tp1369
I26
s(S'VBP'
p1370
S'WDT'
p1371
tp1372
I3
s(S'VB'
p1373
S'DT'
p1374
tp1375
I5849
s(S'-LRB-'
p1376
g1068
tp1377
I2
s(S'JJ'
p1378
S'RP'
p1379
tp1380
I6
s(S'NNPS'
p1381
S'VBD'
p1382
tp1383
I225
s(S'TO'
p1384
S'CD'
p1385
tp1386
I1782
s(S'VB'
p1387
g907
tp1388
I984
s(g30
g436
tp1389
I461
s(S'WRB'
p1390
S'VBZ'
p1391
tp1392
I17
s(S'WP'
p1393
S'PRP$'
p1394
tp1395
I12
s(S'-LRB-'
p1396
S'CD'
p1397
tp1398
I43
s(S'JJS'
p1399
S'RB'
p1400
tp1401
I28
s(S'NNPS'
p1402
S'CD'
p1403
tp1404
I3
s(g51
g51
tp1405
I8
s(g30
S'WP$'
p1406
tp1407
I103
s(S'CD'
p1408
S'NNPS'
p1409
tp1410
I38
s(S'VBD'
p1411
g195
tp1412
I121
s(S"''"
p1413
S'WP'
p1414
tp1415
I13
s(S'DT'
p1416
S'-RRB-'
p1417
tp1418
I2
s(g1205
g1384
tp1419
I5256
s(S'JJ'
p1420
S'``'
p1421
tp1422
I122
s(S'VBN'
p1423
g652
tp1424
I1
s(S'VBZ'
p1425
S'NNP'
p1426
tp1427
I1301
s(S'PRP'
p1428
S'RB'
p1429
tp1430
I938
s(S'JJ'
p1431
g10
tp1432
I4
s(S'VBG'
p1433
S'WRB'
p1434
tp1435
I27
s(S'VBG'
p1436
g51
tp1437
I30
s(g652
g30
tp1438
I1
s(S"''"
p1439
S'WDT'
p1440
tp1441
I60
s(S'WRB'
p1442
S'CC'
p1443
tp1444
I9
s(S'VBG'
p1445
S'SYM'
p1446
tp1447
I1
s(S'VBP'
p1448
S'WP$'
p1449
tp1450
I1
s(S'FW'
p1451
S'NNS'
p1452
tp1453
I8
s(S'NNS'
p1454
S'TO'
p1455
tp1456
I2384
s(S'VBD'
p1457
S'JJS'
p1458
tp1459
I24
s(S'``'
p1460
S'NNPS'
p1461
tp1462
I14
s(S'MD'
p1463
S'-RRB-'
p1464
tp1465
I2
s(S'NN'
p1466
g51
tp1467
I1497
s(S'VBG'
p1468
g708
tp1469
I1415
s(S'VBG'
p1470
g1169
tp1471
I359
s(S'JJ'
p1472
S'NNS'
p1473
tp1474
I14209
s(g869
S'VBP'
p1475
tp1476
I3076
s(S'PRP$'
p1477
S'FW'
p1478
tp1479
I3
s(S'-LRB-'
p1480
S'RB'
p1481
tp1482
I43
s(S'VBD'
p1483
S'-LRB-'
p1484
tp1485
I6
s(S'IN'
p1486
S'MD'
p1487
tp1488
I11
s(S'WRB'
p1489
g4
tp1490
I7
s(S'VBG'
p1491
S'POS'
p1492
tp1493
I1
s(S'NNS'
p1494
S'VBN'
p1495
tp1496
I1264
s(S'RB'
p1497
S'EX'
p1498
tp1499
I25
s(S'JJS'
p1500
S'VBD'
p1501
tp1502
I5
s(S'VB'
p1503
S'NNPS'
p1504
tp1505
I12
s(S'PRP'
p1506
S'PDT'
p1507
tp1508
I2
s(S"''"
p1509
S'-RRB-'
p1510
tp1511
I35
s(S'TO'
p1512
S'VBZ'
p1513
tp1514
I2
s(S'NNPS'
p1515
S'WP$'
p1516
tp1517
I1
s(S'WRB'
p1518
S'TO'
p1519
tp1520
I59
s(S'-LRB-'
p1521
S'``'
p1522
tp1523
I42
s(S'IN'
p1524
g30
tp1525
I245
s(S'NNPS'
p1526
S'``'
p1527
tp1528
I3
s(g30
S'RBR'
p1529
tp1530
I37
s(S'JJ'
p1531
g4
tp1532
I1493
s(S'VBN'
p1533
S'NN'
p1534
tp1535
I1304
s(S'PRP$'
p1536
S'RBR'
p1537
tp1538
I1
s(S'VBD'
p1539
S"''"
p1540
tp1541
I11
s(g51
S'``'
p1542
tp1543
I317
s(S'DT'
p1544
S'VBP'
p1545
tp1546
I145
s(g4
g4
tp1547
I7
s(S'TO'
p1548
g13
tp1549
I1030
s(g368
S'JJ'
p1550
tp1551
I1325
s(S'VBN'
p1552
S'``'
p1553
tp1554
I98
s(S'CC'
p1555
S'IN'
p1556
tp1557
I1227
s(S'JJR'
p1558
S'VBZ'
p1559
tp1560
I4
s(S'TO'
p1561
S'NNP'
p1562
tp1563
I1008
s(S'VBZ'
p1564
g4
tp1565
I672
s(S'POS'
p1566
S'JJ'
p1567
tp1568
I1803
s(g30
g1124
tp1569
I993
s(g275
g13
tp1570
I28
s(S'NN'
p1571
g1172
tp1572
I212
s(S'MD'
p1573
S'VBP'
p1574
tp1575
I3
s(S'WDT'
p1576
S'CD'
p1577
tp1578
I22
s(S'VBZ'
p1579
S'VBZ'
p1580
tp1581
I20
s(g4
S'-RRB-'
p1582
tp1583
I213
s(S'RBS'
p1584
S'MD'
p1585
tp1586
I1
s(g659
g30
tp1587
I109
s(S'``'
p1588
S'EX'
p1589
tp1590
I144
s(g51
S'VBN'
p1591
tp1592
I61
s(S'TO'
p1593
g652
tp1594
I30
s(S'DT'
p1595
S'PDT'
p1596
tp1597
I1
s(g845
g763
tp1598
I225
s(S"''"
p1599
S'JJS'
p1600
tp1601
I1
s(S'VB'
p1602
S"''"
p1603
tp1604
I63
s(S'-RRB-'
p1605
S'JJR'
p1606
tp1607
I1
s(S'VBD'
p1608
g4
tp1609
I1350
s(g51
S'UH'
p1610
tp1611
I1
s(S"''"
p1612
S'RB'
p1613
tp1614
I57
s(S'VBN'
p1615
g10
tp1616
I4
s(g30
S'-LRB-'
p1617
tp1618
I15
s(S'RBS'
p1619
S'VBP'
p1620
tp1621
I1
s(S'PRP'
p1622
g13
tp1623
I5
s(S'IN'
p1624
g13
tp1625
I2760
s(S'JJR'
p1626
g30
tp1627
I129
s(S'CD'
p1628
S'WDT'
p1629
tp1630
I26
s(S'NNS'
p1631
S'RB'
p1632
tp1633
I1880
s(S'NN'
p1634
S'PRP'
p1635
tp1636
I578
s(S'DT'
p1637
S'``'
p1638
tp1639
I454
s(S'CC'
p1640
S'VBP'
p1641
tp1642
I297
s(S'VBG'
p1643
S'MD'
p1644
tp1645
I9
s(S'NNP'
p1646
S'-RRB-'
p1647
tp1648
I323
s(S'JJ'
p1649
S'VBZ'
p1650
tp1651
I84
s(S'VBN'
p1652
S'WP'
p1653
tp1654
I13
s(S'VBN'
p1655
S'JJR'
p1656
tp1657
I66
s(g51
S'EX'
p1658
tp1659
I7
s(S'JJR'
p1660
S'VBG'
p1661
tp1662
I4
s(S'-RRB-'
p1663
S'VBD'
p1664
tp1665
I42
s(S'``'
p1666
S'CD'
p1667
tp1668
I60
s(S'DT'
p1669
g4
tp1670
I131
s(S"''"
p1671
S"''"
p1672
tp1673
I48
s(S'RBR'
p1674
g442
tp1675
I1
s(S'RBS'
p1676
S'NN'
p1677
tp1678
I1
s(S'VBP'
p1679
S'NNPS'
p1680
tp1681
I4
s(S'NNP'
p1682
S'PRP$'
p1683
tp1684
I11
s(S'PRP$'
p1685
g51
tp1686
I1
s(S'CC'
p1687
S'WRB'
p1688
tp1689
I99
s(S'VBG'
p1690
S'VBG'
p1691
tp1692
I67
s(S'IN'
p1693
S'SYM'
p1694
tp1695
I2
s(S'WP'
p1696
S'PRP'
p1697
tp1698
I212
s(S'``'
p1699
S'RB'
p1700
tp1701
I351
s(S'``'
p1702
g13
tp1703
I1
s(S'CC'
p1704
g71
tp1705
I1241
s(S'NNS'
p1706
S'VBG'
p1707
tp1708
I860
s(S'WDT'
p1709
g51
tp1710
I1
s(S'VBP'
p1711
S'PRP'
p1712
tp1713
I455
s(S'IN'
p1714
S'RP'
p1715
tp1716
I1
s(S'CD'
p1717
S'JJR'
p1718
tp1719
I82
s(S'``'
p1720
S'PDT'
p1721
tp1722
I6
s(S'VBZ'
p1723
g51
tp1724
I90
s(S'PRP'
p1725
S'JJS'
p1726
tp1727
I2
s(S'VB'
p1728
S'TO'
p1729
tp1730
I1147
s(S'SYM'
p1731
S'JJ'
p1732
tp1733
I1
s(S'VBP'
p1734
S'VBP'
p1735
tp1736
I13
s(S'VBD'
p1737
g10
tp1738
I3
s(S'MD'
p1739
S'TO'
p1740
tp1741
I32
s(S'PRP'
p1742
S'RBS'
p1743
tp1744
I4
s(S'RBS'
p1745
S'PRP'
p1746
tp1747
I1
s(S'VBD'
p1748
g1526
tp1749
I4
s(S'JJR'
p1750
g13
tp1751
I3
s(S'CD'
p1752
S'WRB'
p1753
tp1754
I27
s(S'EX'
p1755
S'VBD'
p1756
tp1757
I143
s(S'WDT'
p1758
S'TO'
p1759
tp1760
I4
s(g4
g30
tp1761
I3
s(S'RP'
p1762
S'VBP'
p1763
tp1764
I2
s(S'VBP'
p1765
S'WRB'
p1766
tp1767
I30
s(S'NNP'
p1768
S'POS'
p1769
tp1770
I5094
s(S'IN'
p1771
g10
tp1772
I25
s(S'VB'
p1773
g51
tp1774
I64
s(S'CC'
p1775
S'RP'
p1776
tp1777
I3
s(S'RBR'
p1778
S'RP'
p1779
tp1780
I1
s(S'RP'
p1781
S'CC'
p1782
tp1783
I28
s(g30
g51
tp1784
I5
s(S'NN'
p1785
S'WP'
p1786
tp1787
I330
s(S'NNP'
p1788
S'IN'
p1789
tp1790
I3709
s(S'NN'
p1791
S'JJR'
p1792
tp1793
I143
s(S'JJS'
p1794
S'PRP'
p1795
tp1796
I10
s(S'RB'
p1797
S'``'
p1798
tp1799
I51
s(S'NNPS'
p1800
S'PRP'
p1801
tp1802
I4
s(g1656
S'NN'
p1803
tp1804
I903
s(S'TO'
p1805
S'NNPS'
p1806
tp1807
I10
s(S'VBZ'
p1808
S'EX'
p1809
tp1810
I16
s(S'POS'
p1811
S'VB'
p1812
tp1813
I3
s(S'-LRB-'
p1814
S'TO'
p1815
tp1816
I7
s(S'VBP'
p1817
S'FW'
p1818
tp1819
I1
s(S'UH'
p1820
S'VB'
p1821
tp1822
I2
s(S'NNPS'
p1823
S'VBP'
p1824
tp1825
I147
s(S'RB'
p1826
g181
tp1827
I50
s(S'POS'
p1828
S'VBZ'
p1829
tp1830
I38
s(g842
S'CD'
p1831
tp1832
I7370
s(S'TO'
p1833
S'WRB'
p1834
tp1835
I6
s(S'IN'
p1836
S'NNS'
p1837
tp1838
I5820
s(g1647
g51
tp1839
I102
s(S'JJR'
p1840
S'RP'
p1841
tp1842
I5
s(S'JJ'
p1843
S'JJR'
p1844
tp1845
I42
s(S'VBP'
p1846
S'CD'
p1847
tp1848
I113
s(S'JJS'
p1849
S'NNP'
p1850
tp1851
I22
s(S'VBP'
p1852
S'-LRB-'
p1853
tp1854
I5
s(g275
g223
tp1855
I46
s(S'MD'
p1856
S'NNP'
p1857
tp1858
I7
s(S'CD'
p1859
S'-LRB-'
p1860
tp1861
I61
s(S'NNP'
p1862
S'VBG'
p1863
tp1864
I165
s(S'UH'
p1865
S"''"
p1866
tp1867
I6
s(S'MD'
p1868
S"''"
p1869
tp1870
I2
s(S'JJ'
p1871
S'DT'
p1872
tp1873
I207
s(g30
S'PDT'
p1874
tp1875
I13
s(g473
S'FW'
p1876
tp1877
I22
s(S"''"
p1878
S'PRP'
p1879
tp1880
I549
s(S'POS'
p1881
S'VBN'
p1882
tp1883
I64
s(g275
S'NNP'
p1884
tp1885
I8036
s(S'NNP'
p1886
S'VBN'
p1887
tp1888
I77
s(g275
S'LS'
p1889
tp1890
I28
s(S'VB'
p1891
g13
tp1892
I227
s(S'WDT'
p1893
g30
tp1894
I26
s(S'JJ'
p1895
S'RBS'
p1896
tp1897
I6
s(g4
S'JJ'
p1898
tp1899
I4
s(S'CD'
p1900
S'VB'
p1901
tp1902
I1
s(S'NN'
p1903
g1139
tp1904
I2347
s(S'PDT'
p1905
S'JJ'
p1906
tp1907
I1
s(S'JJS'
p1908
S"''"
p1909
tp1910
I4
s(g275
S'NN'
p1911
tp1912
I1598
s(S'CC'
p1913
S'PRP$'
p1914
tp1915
I420
s(S'IN'
p1916
S'LS'
p1917
tp1918
I1
s(S'``'
p1919
S'-LRB-'
p1920
tp1921
I2
s(S'TO'
p1922
S'IN'
p1923
tp1924
I81
s(g51
g1009
tp1925
I60
s(S'WP'
p1926
g30
tp1927
I17
s(S'PRP'
p1928
g1518
tp1929
I21
s(S'PRP'
p1930
S'NNP'
p1931
tp1932
I14
s(S'PRP'
p1933
S'CD'
p1934
tp1935
I17
s(g4
S'``'
p1936
tp1937
I18
s(S'VBD'
p1938
S'RBS'
p1939
tp1940
I13
s(S'RP'
p1941
S'RB'
p1942
tp1943
I138
s(S'RBR'
p1944
g51
tp1945
I10
s(S'VBD'
p1946
S'PRP'
p1947
tp1948
I1800
s(S'CC'
p1949
g30
tp1950
I184
s(S'VBD'
p1951
S'MD'
p1952
tp1953
I12
s(g4
S'FW'
p1954
tp1955
I1
s(S'VBZ'
p1956
S'WDT'
p1957
tp1958
I8
s(S'IN'
p1959
S'RBR'
p1960
tp1961
I69
s(S'PRP'
p1962
S'CC'
p1963
tp1964
I139
s(S'-RRB-'
p1965
S'-LRB-'
p1966
tp1967
I1
s(S'VBZ'
p1968
g170
tp1969
I41
s(S'WDT'
p1970
S'DT'
p1971
tp1972
I121
s(S'-RRB-'
p1973
g4
tp1974
I190
s(S'TO'
p1975
S'-RRB-'
p1976
tp1977
I1
s(S'FW'
p1978
S'NNP'
p1979
tp1980
I49
s(S'DT'
p1981
S'VBD'
p1982
tp1983
I180
s(g51
S'PRP$'
p1984
tp1985
I37
s(S'NN'
p1986
S'NN'
p1987
tp1988
I16241
s(S'VBN'
p1989
S'WRB'
p1990
tp1991
I41
s(g30
S'FW'
p1992
tp1993
I18
s(S'VBD'
p1994
S'PDT'
p1995
tp1996
I21
s(S'WDT'
p1997
S'NNPS'
p1998
tp1999
I1
s(S'RP'
p2000
S'RP'
p2001
tp2002
I2
s(S'PRP'
p2003
S'VB'
p2004
tp2005
I233
s(S'-LRB-'
p2006
S'VBZ'
p2007
tp2008
I1
s(S'TO'
p2009
S'JJ'
p2010
tp2011
I691
s(S'TO'
p2012
S'JJS'
p2013
tp2014
I5
s(g51
S'JJ'
p2015
tp2016
I168
s(S'EX'
p2017
S'DT'
p2018
tp2019
I2
s(S'FW'
p2020
S'NN'
p2021
tp2022
I17
s(S'JJS'
p2023
S'WRB'
p2024
tp2025
I4
s(S'CC'
p2026
g652
tp2027
I4
s(S'VBP'
p2028
g343
tp2029
I111
s(S'FW'
p2030
S'-RRB-'
p2031
tp2032
I1
s(g4
S'NNS'
p2033
tp2034
I4
s(S'RB'
p2035
S'PRP$'
p2036
tp2037
I75
s(S'CC'
p2038
S'WP'
p2039
tp2040
I51
s(g30
S'RBS'
p2041
tp2042
I18
s(S'VB'
p2043
g1811
tp2044
I5
s(S'JJ'
p2045
S'VB'
p2046
tp2047
I7
s(S'VB'
p2048
S'VBP'
p2049
tp2050
I10
s(S'UH'
p2051
g51
tp2052
I4
s(S'VB'
p2053
S'NNP'
p2054
tp2055
I827
s(S'VBN'
p2056
g4
tp2057
I994
s(g30
g750
tp2058
I419
s(S'NN'
p2059
g10
tp2060
I66
s(S'UH'
p2061
S'-RRB-'
p2062
tp2063
I3
s(S'NNS'
p2064
S'NNP'
p2065
tp2066
I183
s(S'-RRB-'
p2067
S'PRP'
p2068
tp2069
I9
s(S'MD'
p2070
S'VBZ'
p2071
tp2072
I1
s(S'DT'
p2073
S'WP'
p2074
tp2075
I66
s(S'EX'
p2076
S'WP'
p2077
tp2078
I2
s(S'JJ'
p2079
S'PDT'
p2080
tp2081
I1
s(S'NNP'
p2082
S'PRP'
p2083
tp2084
I73
s(g30
g731
tp2085
I2086
s(S'POS'
p2086
S'``'
p2087
tp2088
I102
s(S'JJR'
p2089
S'WRB'
p2090
tp2091
I2
s(g30
S'DT'
p2092
tp2093
I6487
s(S'JJ'
p2094
S"''"
p2095
tp2096
I278
s(S'NN'
p2097
S'NNPS'
p2098
tp2099
I12
s(S'WRB'
p2100
S'NNP'
p2101
tp2102
I220
s(S'CD'
p2103
S"''"
p2104
tp2105
I14
s(S'NNPS'
p2106
g51
tp2107
I52
s(S'-RRB-'
p2108
S'VB'
p2109
tp2110
I10
s(S'DT'
p2111
S'FW'
p2112
tp2113
I21
s(S'NNS'
p2114
S'SYM'
p2115
tp2116
I1
s(S'WDT'
p2117
S'CC'
p2118
tp2119
I2
s(g1043
S'NN'
p2120
tp2121
I29
s(S'VBZ'
p2122
S'NN'
p2123
tp2124
I753
s(S'PRP'
p2125
S'EX'
p2126
tp2127
I2
s(S'``'
p2128
S'NNP'
p2129
tp2130
I525
s(g51
S'CD'
p2131
tp2132
I563
s(S'MD'
p2133
g51
tp2134
I7
s(S'VBP'
p2135
S'WP'
p2136
tp2137
I26
s(g1769
S'NNP'
p2138
tp2139
I905
s(g1188
S'IN'
p2140
tp2141
I7
s(g22
S'-RRB-'
p2142
tp2143
I3
s(S'JJ'
p2144
S'CD'
p2145
tp2146
I954
s(S'VBD'
p2147
S'FW'
p2148
tp2149
I1
s(S'DT'
p2150
S"''"
p2151
tp2152
I3
s(S'-RRB-'
p2153
S'CC'
p2154
tp2155
I73
s(g4
S'CD'
p2156
tp2157
I5
s(S'VBG'
p2158
g13
tp2159
I99
s(S'RB'
p2160
S'JJS'
p2161
tp2162
I22
s(g1292
S'``'
p2163
tp2164
I546
s(g275
S'WP'
p2165
tp2166
I123
s(S'WRB'
p2167
S'IN'
p2168
tp2169
I19
s(S'JJ'
p2170
S'VBD'
p2171
tp2172
I80
s(g275
g51
tp2173
I102
s(S'NNS'
p2174
S'VBP'
p2175
tp2176
I5076
s(S'NNP'
p2177
S'NN'
p2178
tp2179
I5335
s(S'NNPS'
p2180
S'POS'
p2181
tp2182
I66
s(S'WP$'
p2183
g13
tp2184
I4
s(S'POS'
p2185
S'NN'
p2186
tp2187
I3617
s(S'WP$'
p2188
S'VBN'
p2189
tp2190
I1
s(S'FW'
p2191
S'TO'
p2192
tp2193
I4
s(S'IN'
p2194
g1187
tp2195
I20
s(S'POS'
p2196
S'RBR'
p2197
tp2198
I3
s(S'RP'
p2199
g30
tp2200
I112
s(S'NNP'
p2201
g106
tp2202
I31
s(S'NNS'
p2203
g30
tp2204
I7446
s(S'DT'
p2205
g377
tp2206
I38873
s(S'NN'
p2207
g4
tp2208
I14493
s(g275
S'JJR'
p2209
tp2210
I60
s(S'VBN'
p2211
S'JJS'
p2212
tp2213
I4
s(S'CD'
p2214
S'RBR'
p2215
tp2216
I6
s(S'VBN'
p2217
S'VB'
p2218
tp2219
I15
s(S'VBP'
p2220
g1468
tp2221
I1089
s(g479
S'JJ'
p2222
tp2223
I2023
s(S'TO'
p2224
S'RB'
p2225
tp2226
I200
s(S'WDT'
p2227
S'MD'
p2228
tp2229
I582
s(S'DT'
p2230
S'RP'
p2231
tp2232
I6
s(S'NN'
p2233
g30
tp2234
I15248
s(S'LS'
p2235
S'-RRB-'
p2236
tp2237
I11
s(S'VBP'
p2238
S'VBN'
p2239
tp2240
I2046
s(S'NNP'
p2241
g1071
tp2242
I1527
s(S'UH'
p2243
S'UH'
p2244
tp2245
I3
s(S'VBD'
p2246
S'VB'
p2247
tp2248
I84
s(S'DT'
p2249
g1221
tp2250
I2
s(S'VBD'
p2251
S'DT'
p2252
tp2253
I5056
s(g51
S'-LRB-'
p2254
tp2255
I3
s(g51
S'VBP'
p2256
tp2257
I54
s(S'``'
p2258
S'JJS'
p2259
tp2260
I27
s(g51
g13
tp2261
I129
s(S'CD'
p2262
S'JJS'
p2263
tp2264
I31
s(S'NNPS'
p2265
S'-LRB-'
p2266
tp2267
I7
s(S'JJS'
p2268
S'MD'
p2269
tp2270
I2
s(S'RB'
p2271
g30
tp2272
I2992
s(S"''"
p2273
S'WRB'
p2274
tp2275
I22
s(S"''"
p2276
S'MD'
p2277
tp2278
I31
s(S'DT'
p2279
g2224
tp2280
I25
s(S'PRP'
p2281
S'NN'
p2282
tp2283
I50
s(S'JJ'
p2284
g30
tp2285
I1780
s(S'POS'
p2286
S'-LRB-'
p2287
tp2288
I2
s(S'VBG'
p2289
S'-LRB-'
p2290
tp2291
I7
s(S'PRP'
p2292
g30
tp2293
I368
s(S'``'
p2294
S'IN'
p2295
tp2296
I455
s(S'NNP'
p2297
g51
tp2298
I628
s(S'VBG'
p2299
S'WP'
p2300
tp2301
I34
s(S'WP$'
p2302
S'RB'
p2303
tp2304
I1
s(g4
g51
tp2305
I8
s(g4
S'WP'
p2306
tp2307
I2
s(S'DT'
p2308
S'RB'
p2309
tp2310
I844
s(S'RP'
p2311
S'WP'
p2312
tp2313
I15
s(S'VB'
p2314
g1219
tp2315
I2238
s(g275
S'CD'
p2316
tp2317
I440
s(S'WRB'
p2318
S'-RRB-'
p2319
tp2320
I1
s(S'TO'
p2321
S'NN'
p2322
tp2323
I734
s(S'EX'
p2324
g30
tp2325
I4
s(g1700
S'DT'
p2326
tp2327
I1462
s(S'RBS'
p2328
g30
tp2329
I4
s(g291
S'-RRB-'
p2330
tp2331
I4
s(S'JJR'
p2332
g4
tp2333
I154
s(g2074
g284
tp2334
I645
s(S'NN'
p2335
g13
tp2336
I34
s(S'WDT'
p2337
S'JJR'
p2338
tp2339
I2
s(g1131
g1561
tp2340
I2142
s(g4
S'PRP'
p2341
tp2342
I1
s(S'NN'
p2343
S'NNP'
p2344
tp2345
I1296
s(S'VBN'
p2346
S'MD'
p2347
tp2348
I23
s(g30
g753
tp2349
I2796
s(g598
g10
tp2350
I5
s(S'-LRB-'
p2351
S'UH'
p2352
tp2353
I5
s(S'VBD'
p2354
S'JJ'
p2355
tp2356
I1708
s(S'``'
p2357
S'VBP'
p2358
tp2359
I82
s(g892
g1768
tp2360
I14753
s(S'JJS'
p2361
g30
tp2362
I50
s(S'FW'
p2363
S'VBN'
p2364
tp2365
I1
s(S'RB'
p2366
g13
tp2367
I380
s(S'TO'
p2368
S'UH'
p2369
tp2370
I1
s(S'POS'
p2371
S'VBP'
p2372
tp2373
I5
s(S'WRB'
p2374
S'EX'
p2375
tp2376
I23
s(g1072
g1946
tp2377
I6013
s(S'``'
p2378
S'PRP'
p2379
tp2380
I1527
s(g51
g10
tp2381
I299
s(S'JJ'
p2382
g13
tp2383
I171
s(g1455
g2314
tp2384
I12851
s(S'-LRB-'
p2385
S'WDT'
p2386
tp2387
I10
s(S'VBD'
p2388
S'NNS'
p2389
tp2390
I705
s(S'POS'
p2391
S'PRP'
p2392
tp2393
I1
s(S'VBD'
p2394
g1204
tp2395
I792
s(S'VBN'
p2396
S'RB'
p2397
tp2398
I973
s(S'DT'
p2399
S'WDT'
p2400
tp2401
I16
s(S'NNP'
p2402
g489
tp2403
I1752
s(g464
S'CD'
p2404
tp2405
I166
s(S'DT'
p2406
g30
tp2407
I191
s(S'-RRB-'
p2408
S'``'
p2409
tp2410
I1
s(S'-LRB-'
p2411
g411
tp2412
I6
s(g210
S'NNP'
p2413
tp2414
I3824
s(S'TO'
p2415
S'WP'
p2416
tp2417
I26
s(S'VBG'
p2418
S'NNP'
p2419
tp2420
I592
s(S'PRP$'
p2421
S'VBD'
p2422
tp2423
I3
s(g51
S'WP'
p2424
tp2425
I25
s(S'WDT'
p2426
S'PRP$'
p2427
tp2428
I7
s(S'WP'
p2429
S'VB'
p2430
tp2431
I11
s(S'FW'
p2432
S'-LRB-'
p2433
tp2434
I4
s(S'VBN'
p2435
g2174
tp2436
I759
s(g51
S'NNS'
p2437
tp2438
I141
s(g1029
g1130
tp2439
I2518
s(g2175
S'DT'
p2440
tp2441
I1473
s(S'VBD'
p2442
S'VBZ'
p2443
tp2444
I11
s(g610
S'CC'
p2445
tp2446
I210
s(S"''"
p2447
S'VBD'
p2448
tp2449
I613
s(S'VBD'
p2450
S'WDT'
p2451
tp2452
I4
s(S'RBS'
p2453
S'VB'
p2454
tp2455
I2
s(S'RB'
p2456
S'POS'
p2457
tp2458
I6
s(S'CC'
p2459
S'JJ'
p2460
tp2461
I2645
s(S'``'
p2462
S'``'
p2463
tp2464
I3
s(S'WDT'
p2465
S'PRP'
p2466
tp2467
I151
s(S'VBG'
p2468
S'JJR'
p2469
tp2470
I128
s(S'WP$'
p2471
S'JJ'
p2472
tp2473
I33
s(S'VBZ'
p2474
g1104
tp2475
I60
s(S'VBZ'
p2476
S'IN'
p2477
tp2478
I1942
s(S'NNS'
p2479
S"''"
p2480
tp2481
I232
s(S'PRP$'
p2482
S'VBZ'
p2483
tp2484
I1
s(S'VBZ'
p2485
S'PDT'
p2486
tp2487
I12
s(S'IN'
p2488
g550
tp2489
I19
s(S'RP'
p2490
g652
tp2491
I2
s(S'NNPS'
p2492
S'TO'
p2493
tp2494
I36
s(S'VB'
p2495
g710
tp2496
I860
s(S'VB'
p2497
S'VBD'
p2498
tp2499
I34
s(S'TO'
p2500
S'VBD'
p2501
tp2502
I3
s(S'VBZ'
p2503
S'VB'
p2504
tp2505
I70
s(S'IN'
p2506
S'-RRB-'
p2507
tp2508
I8
s(S'VBD'
p2509
g30
tp2510
I691
s(g595
S'VBP'
p2511
tp2512
I28
s(S'DT'
p2513
g175
tp2514
I628
s(g2087
S'NN'
p2515
tp2516
I599
s(S'RP'
p2517
S"''"
p2518
tp2519
I15
s(S'VBD'
p2520
S'VBG'
p2521
tp2522
I680
s(g51
S'NNPS'
p2523
tp2524
I5
s(g1992
g4
tp2525
I24
s(S'VBN'
p2526
S'NNPS'
p2527
tp2528
I4
s(g125
S'JJ'
p2529
tp2530
I331
s(S'JJ'
p2531
S'WDT'
p2532
tp2533
I9
s(S'VBZ'
p2534
S'VBG'
p2535
tp2536
I1272
s(S'WRB'
p2537
S'WRB'
p2538
tp2539
I1
s(S'VB'
p2540
g1255
tp2541
I1318
s(S'VB'
p2542
S'VBZ'
p2543
tp2544
I40
s(S'VBP'
p2545
S'JJR'
p2546
tp2547
I99
s(g275
g652
tp2548
I1
s(S'-RRB-'
p2549
S'DT'
p2550
tp2551
I34
s(g30
g2474
tp2552
I1560
s(g2409
S'UH'
p2553
tp2554
I27
s(g4
S'NNP'
p2555
tp2556
I60
s(S'NNP'
p2557
S'JJ'
p2558
tp2559
I752
s(S'MD'
p2560
S'VBD'
p2561
tp2562
I6
s(S'RP'
p2563
S'NNP'
p2564
tp2565
I67
s(S"''"
p2566
g30
tp2567
I7
s(S'VBN'
p2568
S'EX'
p2569
tp2570
I2
s(S'NNS'
p2571
S'WRB'
p2572
tp2573
I127
s(S'VBZ'
p2574
g2100
tp2575
I83
s(S'NNPS'
p2576
S'RBR'
p2577
tp2578
I1
s(S'VBZ'
p2579
g2396
tp2580
I3197
s(S'NNS'
p2581
g2251
tp2582
I4328
s(S'``'
p2583
S'TO'
p2584
tp2585
I38
s(S'TO'
p2586
g10
tp2587
I7
s(g1461
S"''"
p2588
tp2589
I10
s(S'CC'
p2590
g1313
tp2591
I6
s(S'VBD'
p2592
g13
tp2593
I475
s(S'VBD'
p2594
g1194
tp2595
I92
s(S'POS'
p2596
S'IN'
p2597
tp2598
I24
s(S'RB'
p2599
S'RBS'
p2600
tp2601
I6
s(S'WP'
p2602
g4
tp2603
I4
s(S'JJ'
p2604
g1472
tp2605
I4571
s(g1582
g10
tp2606
I149
s(S'NNPS'
p2607
S'IN'
p2608
tp2609
I174
s(S'-RRB-'
p2610
g30
tp2611
I225
s(S'WRB'
p2612
S'WP'
p2613
tp2614
I1
s(S'JJS'
p2615
S'VBG'
p2616
tp2617
I10
s(S'-RRB-'
p2618
S'WDT'
p2619
tp2620
I6
s(S'IN'
p2621
S'WRB'
p2622
tp2623
I160
s(g1421
g2479
tp2624
I259
s(S'JJ'
p2625
S'VBN'
p2626
tp2627
I117
s(S'NNP'
p2628
S'TO'
p2629
tp2630
I699
s(S'-RRB-'
p2631
S'VBP'
p2632
tp2633
I30
s(S'NNP'
p2634
S'WDT'
p2635
tp2636
I89
s(S'MD'
p2637
S'CD'
p2638
tp2639
I2
s(g4
S'TO'
p2640
tp2641
I1
s(S'VBG'
p2642
S'-RRB-'
p2643
tp2644
I6
s(g30
S'VBG'
p2645
tp2646
I2187
s(S'RBR'
p2647
S'NN'
p2648
tp2649
I8
s(S'VBN'
p2650
S'VBD'
p2651
tp2652
I44
s(S'RP'
p2653
S'JJ'
p2654
tp2655
I135
s(S'WRB'
p2656
S'RB'
p2657
tp2658
I85
s(g4
g10
tp2659
I36713
s(S'CD'
p2660
S'PRP'
p2661
tp2662
I25
s(S"''"
p2663
g13
tp2664
I1
s(S'JJ'
p2665
S'RBR'
p2666
tp2667
I10
s(g756
S'NNP'
p2668
tp2669
I445
s(S'RB'
p2670
S'TO'
p2671
tp2672
I855
s(S'CC'
p2673
S'EX'
p2674
tp2675
I79
s(g1567
S'VBG'
p2676
tp2677
I190
s(S'VBZ'
p2678
g1928
tp2679
I521
s(g275
S'VBN'
p2680
tp2681
I230
s(g737
S'VBN'
p2682
tp2683
I25
s(g51
S'VBG'
p2684
tp2685
I106
s(S'RP'
p2686
S'PRP$'
p2687
tp2688
I141
s(S'JJR'
p2689
g10
tp2690
I1
s(S'TO'
p2691
S'PDT'
p2692
tp2693
I7
s(S'``'
p2694
S'WDT'
p2695
tp2696
I13
s(S'NNP'
p2697
S'RBS'
p2698
tp2699
I1
s(g275
S'JJS'
p2700
tp2701
I100
s(g37
g1454
tp2702
I2218
s(S'POS'
p2703
S'MD'
p2704
tp2705
I10
s(S'NN'
p2706
S'-RRB-'
p2707
tp2708
I233
s(S'VBP'
p2709
S'VBD'
p2710
tp2711
I46
s(g30
S'CD'
p2712
tp2713
I1023
s(S'VBG'
p2714
S'EX'
p2715
tp2716
I4
s(S'MD'
p2717
S'``'
p2718
tp2719
I45
s(S'RB'
p2720
S'CC'
p2721
tp2722
I287
s(g13
S'JJ'
p2723
tp2724
I63
s(g30
g13
tp2725
I76
s(S'NNP'
p2726
g2670
tp2727
I849
s(g30
g1555
tp2728
I4516
s(S'VBZ'
p2729
S'UH'
p2730
tp2731
I1
s(S'NNS'
p2732
S'RBS'
p2733
tp2734
I7
s(S'POS'
p2735
S'RB'
p2736
tp2737
I48
s(S"''"
p2738
S'TO'
p2739
tp2740
I111
s(S'NNP'
p2741
S"''"
p2742
tp2743
I217
s(S'``'
p2744
S'JJR'
p2745
tp2746
I26
s(S'WDT'
p2747
S'JJS'
p2748
tp2749
I2
s(S'DT'
p2750
g386
tp2751
I1
s(g276
S'PRP'
p2752
tp2753
I477
s(S'NNS'
p2754
S'JJS'
p2755
tp2756
I2
s(S'RB'
p2757
S'NNP'
p2758
tp2759
I214
s(S'``'
p2760
S'VBD'
p2761
tp2762
I86
s(g275
g1823
tp2763
I79
s(S'IN'
p2764
S'VB'
p2765
tp2766
I45
s(S'VBD'
p2767
S'WRB'
p2768
tp2769
I48
s(g1346
g972
tp2770
I6310
s(S'CC'
p2771
S'VB'
p2772
tp2773
I771
s(g1556
g2604
tp2774
I8886
s(g30
S'NN'
p2775
tp2776
I2404
s(S'NNP'
p2777
S'VB'
p2778
tp2779
I96
s(S'TO'
p2780
g4
tp2781
I17
s(S'NN'
p2782
g1110
tp2783
I2431
s(S'NNPS'
p2784
g4
tp2785
I198
s(S'NNP'
p2786
S'RP'
p2787
tp2788
I4
s(g30
S'RP'
p2789
tp2790
I5
s(S'IN'
p2791
S'CC'
p2792
tp2793
I133
s(S'-LRB-'
p2794
S'PRP'
p2795
tp2796
I29
s(S'PRP'
p2797
S'FW'
p2798
tp2799
I1
s(g1889
g30
tp2800
I8
s(S'``'
p2801
S'VBZ'
p2802
tp2803
I145
s(S'NNPS'
p2804
S'DT'
p2805
tp2806
I8
s(S'VBP'
p2807
S'CC'
p2808
tp2809
I55
s(g754
g697
tp2810
I5369
s(S'JJS'
p2811
S'DT'
p2812
tp2813
I38
s(S'VB'
p2814
g1865
tp2815
I3
s(S'RP'
p2816
S'VBG'
p2817
tp2818
I51
s(S'SYM'
p2819
S'FW'
p2820
tp2821
I2
s(S'NNP'
p2822
g1425
tp2823
I3532
s(S"''"
p2824
S'VBP'
p2825
tp2826
I17
s(S'WP'
p2827
S'JJR'
p2828
tp2829
I1
s(S'FW'
p2830
S'``'
p2831
tp2832
I1
s(S'JJR'
p2833
S'PDT'
p2834
tp2835
I1
s(S'EX'
p2836
S'PRP'
p2837
tp2838
I1
s(S'WDT'
p2839
S'EX'
p2840
tp2841
I7
s(g1406
S'NN'
p2842
tp2843
I61
s(S'DT'
p2844
g652
tp2845
I13
s(S'RBR'
p2846
S'VBD'
p2847
tp2848
I10
s(S'NN'
p2849
S'WP$'
p2850
tp2851
I24
s(S'IN'
p2852
S'VBZ'
p2853
tp2854
I61
s(S'PRP'
p2855
S'PRP'
p2856
tp2857
I28
s(S'IN'
p2858
S'TO'
p2859
tp2860
I216
s(S'IN'
p2861
S'WDT'
p2862
tp2863
I359
s(S'VBP'
p2864
S'``'
p2865
tp2866
I56
s(S"''"
p2867
S'JJ'
p2868
tp2869
I51
s(g1473
g4
tp2870
I8098
s(g2448
S'NNP'
p2871
tp2872
I1642
s(S'WP$'
p2873
S'NNP'
p2874
tp2875
I11
s(g30
S'IN'
p2876
tp2877
I4193
s(g30
S'JJR'
p2878
tp2879
I82
s(g51
S'PRP'
p2880
tp2881
I192
s(g4
S'NNPS'
p2882
tp2883
I5
s(S'NNS'
p2884
S'WP'
p2885
tp2886
I416
s(S'``'
p2887
S'VB'
p2888
tp2889
I187
s(S'RB'
p2890
g4
tp2891
I1552
s(g1148
g2402
tp2892
I9043
s(g51
S'TO'
p2893
tp2894
I52
s(g2707
S'IN'
p2895
tp2896
I155
s(S'RB'
p2897
S'-LRB-'
p2898
tp2899
I17
s(S'TO'
p2900
S'VBP'
p2901
tp2902
I1
s(S'PRP$'
p2903
S'VBG'
p2904
tp2905
I66
s(S'POS'
p2906
g30
tp2907
I52
s(S'VBD'
p2908
S'NN'
p2909
tp2910
I958
s(S'POS'
p2911
S'TO'
p2912
tp2913
I2
s(S'WDT'
p2914
S'NNS'
p2915
tp2916
I73
s(g51
S'NNP'
p2917
tp2918
I443
s(g2674
S'VBZ'
p2919
tp2920
I394
s(S'DT'
p2921
S'PRP'
p2922
tp2923
I40
s(S'POS'
p2924
S'VBG'
p2925
tp2926
I103
s(S'VBZ'
p2927
S'DT'
p2928
tp2929
I3527
s(S'NNP'
p2930
S'WP'
p2931
tp2932
I54
s(S'-LRB-'
p2933
S'VBG'
p2934
tp2935
I9
s(S'VBG'
p2936
g4
tp2937
I241
s(S'TO'
p2938
g21
tp2939
I5
s(S'``'
p2940
g51
tp2941
I3
s(S'WRB'
p2942
S'VBG'
p2943
tp2944
I23
s(S'POS'
p2945
g51
tp2946
I2
s(S'VB'
p2947
S'VBN'
p2948
tp2949
I2236
s(g275
S'MD'
p2950
tp2951
I27
s(g1215
S'CD'
p2952
tp2953
I447
s(S'TO'
p2954
S'VBN'
p2955
tp2956
I30
s(S'MD'
p2957
S'PRP'
p2958
tp2959
I53
s(g4
S'RB'
p2960
tp2961
I3
s(S'IN'
p2962
S"''"
p2963
tp2964
I10
s(S'DT'
p2965
S'MD'
p2966
tp2967
I181
s(S'-LRB-'
p2968
S'VBN'
p2969
tp2970
I24
s(S'-LRB-'
p2971
g1463
tp2972
I1
s(S'CD'
p2973
S'PRP$'
p2974
tp2975
I3
s(S'-LRB-'
p2976
g2706
tp2977
I94
s(S'VB'
p2978
S'VBG'
p2979
tp2980
I464
s(S'VBZ'
p2981
S'NNS'
p2982
tp2983
I354
s(S'JJS'
p2984
S'``'
p2985
tp2986
I3
s(g51
S"''"
p2987
tp2988
I6
s(S'IN'
p2989
g847
tp2990
I1
s(g2622
S'JJ'
p2991
tp2992
I205
s(S'VB'
p2993
g652
tp2994
I3
s(g51
g652
tp2995
I2
s(g887
S'JJ'
p2996
tp2997
I147
s(S'MD'
p2998
S'RBR'
p2999
tp3000
I12
s(S'JJ'
p3001
S'TO'
p3002
tp3003
I1707
s(S'WRB'
p3004
S'JJS'
p3005
tp3006
I4
s(g1694
S'CD'
p3007
tp3008
I4
s(S'VBD'
p3009
S'IN'
p3010
tp3011
I3384
s(S'VBD'
p3012
S'VBD'
p3013
tp3014
I54
s(S'JJR'
p3015
S'PRP$'
p3016
tp3017
I2
s(S'VBN'
p3018
S'POS'
p3019
tp3020
I3
s(S'RB'
p3021
g51
tp3022
I134
s(S'MD'
p3023
S'VBN'
p3024
tp3025
I5
s(g275
S'PRP$'
p3026
tp3027
I320
s(S'JJ'
p3028
S'FW'
p3029
tp3030
I8
s(g1279
S'JJ'
p3031
tp3032
I538
s(S'JJ'
p3033
g51
tp3034
I186
s(S'VBD'
p3035
g1159
tp3036
I3
s(S'VBP'
p3037
g951
tp3038
I8
s(S'NNP'
p3039
g1521
tp3040
I313
s(S'PRP'
p3041
S'TO'
p3042
tp3043
I283
s(S'DT'
p3044
g1626
tp3045
I465
s(g1947
S'VBZ'
p3046
tp3047
I3875
s(S'WP'
p3048
S'NNS'
p3049
tp3050
I21
s(S'VB'
p3051
S'CC'
p3052
tp3053
I247
s(S'RP'
p3054
g472
tp3055
I13
s(S"''"
p3056
S'PRP$'
p3057
tp3058
I11
s(S'JJ'
p3059
S'WRB'
p3060
tp3061
I43
s(g1876
S"''"
p3062
tp3063
I12
s(S'VBG'
p3064
S'``'
p3065
tp3066
I81
s(S'WRB'
p3067
S'WDT'
p3068
tp3069
I1
s(S'WRB'
p3070
S'MD'
p3071
tp3072
I26
s(S'IN'
p3073
S'-LRB-'
p3074
tp3075
I34
s(S'NNPS'
p3076
S'PRP$'
p3077
tp3078
I1
s(S'WDT'
p3079
S'-LRB-'
p3080
tp3081
I1
s(S'NNPS'
p3082
S'WP'
p3083
tp3084
I26
s(S'IN'
p3085
g2607
tp3086
I168
s(S'VB'
p3087
S'RBS'
p3088
tp3089
I6
s(S'VBZ'
p3090
S'``'
p3091
tp3092
I198
s(g1632
S'MD'
p3093
tp3094
I330
s(S'NNS'
p3095
S'RP'
p3096
tp3097
I41
s(S'WP$'
p3098
S'JJS'
p3099
tp3100
I1
s(g51
g145
tp3101
I321
s(g698
g2610
tp3102
I98
s(S'WP'
p3103
S'-LRB-'
p3104
tp3105
I1
s(S'VB'
p3106
S'NN'
p3107
tp3108
I1629
s(S'RB'
p3109
S'RBR'
p3110
tp3111
I230
s(S'VBP'
p3112
S'POS'
p3113
tp3114
I2
s(S'NNS'
p3115
S'NN'
p3116
tp3117
I1246
s(S'DT'
p3118
S'JJ'
p3119
tp3120
I17848
s(S'VBN'
p3121
g2056
tp3122
I639
s(S'VBG'
p3123
g30
tp3124
I179
s(S'RB'
p3125
S'NN'
p3126
tp3127
I358
s(S'DT'
p3128
S'VBZ'
p3129
tp3130
I657
s(S'NNP'
p3131
g1127
tp3132
I1
s(S'RBR'
p3133
g4
tp3134
I229
s(S'IN'
p3135
g1696
tp3136
I228
s(S'RP'
p3137
g10
tp3138
I1
s(g2300
S'MD'
p3139
tp3140
I154
s(g1939
S'RB'
p3141
tp3142
I51
s(S'RB'
p3143
g2199
tp3144
I11
s(S'IN'
p3145
g625
tp3146
I2
s(g30
g623
tp3147
I19
s(S'WDT'
p3148
S'POS'
p3149
tp3150
I1
s(S'POS'
p3151
S'WRB'
p3152
tp3153
I1
s(g2095
S'NNS'
p3154
tp3155
I116
s(S'NN'
p3156
S'VBP'
p3157
tp3158
I518
s(g141
S'VBZ'
p3159
tp3160
I1247
s(S'-LRB-'
p3161
S'WRB'
p3162
tp3163
I4
s(g51
S'VBD'
p3164
tp3165
I82
s(S'IN'
p3166
S'PRP'
p3167
tp3168
I2975
s(S'PRP'
p3169
S'IN'
p3170
tp3171
I606
s(S'CD'
p3172
S'NNP'
p3173
tp3174
I479
s(g778
S'IN'
p3175
tp3176
I2953
s(S'VBP'
p3177
g4
tp3178
I239
s(S'``'
p3179
S'RBR'
p3180
tp3181
I14
s(S'CD'
p3182
g13
tp3183
I4
s(g2138
g3039
tp3184
I34465
s(S'EX'
p3185
S'RB'
p3186
tp3187
I21
s(g828
S'NNS'
p3188
tp3189
I10342
s(S'VBZ'
p3190
g652
tp3191
I1
s(S'FW'
p3192
S'JJ'
p3193
tp3194
I7
s(S'CD'
p3195
S'DT'
p3196
tp3197
I1055
s(g1344
g10
tp3198
I2279
s(g990
g2890
tp3199
I132
s(S'VBP'
p3200
S'NNS'
p3201
tp3202
I423
s(S'RB'
p3203
S'RB'
p3204
tp3205
I2263
s(g275
g228
tp3206
I115
s(S'VB'
p3207
S'PDT'
p3208
tp3209
I40
s(g1522
g2435
tp3210
I75
s(S'JJ'
p3211
g1081
tp3212
I40
s(S'NNP'
p3213
g1978
tp3214
I45
s(g253
g4
tp3215
I3
s(S'PRP$'
p3216
g30
tp3217
I2
s(S'MD'
p3218
S'NN'
p3219
tp3220
I6
s(S'NN'
p3221
S'VBN'
p3222
tp3223
I1426
s(S'NNS'
p3224
g18
tp3225
I119
s(S'NNS'
p3226
S'JJ'
p3227
tp3228
I1005
s(g51
S'RBR'
p3229
tp3230
I3
s(S'VB'
p3231
S'RBR'
p3232
tp3233
I123
s(S'VBN'
p3234
S'-LRB-'
p3235
tp3236
I9
s(S'NNS'
p3237
S'JJR'
p3238
tp3239
I64
s(S'TO'
p3240
S'RBR'
p3241
tp3242
I20
s(S'IN'
p3243
S'VBN'
p3244
tp3245
I426
s(g3091
S'VBG'
p3246
tp3247
I109
s(S'CC'
p3248
S'VBG'
p3249
tp3250
I510
s(S'JJR'
p3251
S'RB'
p3252
tp3253
I16
s(g275
S'CC'
p3254
tp3255
I2272
s(S'CC'
p3256
g51
tp3257
I7
s(g51
S'VB'
p3258
tp3259
I46
s(S'NN'
p3260
S'VBG'
p3261
tp3262
I1012
s(S'NN'
p3263
g900
tp3264
I5812
s(S'-LRB-'
p3265
S'JJR'
p3266
tp3267
I1
s(S'-RRB-'
p3268
g1548
tp3269
I28
s(g275
S'WP$'
p3270
tp3271
I1
s(S'RP'
p3272
S'-RRB-'
p3273
tp3274
I1
s(g4
S'-LRB-'
p3275
tp3276
I53
s(g3029
S'VBZ'
p3277
tp3278
I7
s(S'JJR'
p3279
S'NNS'
p3280
tp3281
I545
s(S"''"
p3282
S'FW'
p3283
tp3284
I1
s(S'NNP'
p3285
S'VBP'
p3286
tp3287
I376
s(S'RB'
p3288
S'VBP'
p3289
tp3290
I800
s(S'RB'
p3291
S'WDT'
p3292
tp3293
I6
s(S'RBR'
p3294
S'VBN'
p3295
tp3296
I33
s(S'WP'
p3297
g448
tp3298
I382
s(S"''"
p3299
S'``'
p3300
tp3301
I19
s(S'JJS'
p3302
g13
tp3303
I21
s(S'VB'
p3304
g30
tp3305
I448
s(g502
S'RB'
p3306
tp3307
I1665
s(S'WRB'
p3308
S'VBP'
p3309
tp3310
I11
s(S'TO'
p3311
S'TO'
p3312
tp3313
I2
s(S'NNS'
p3314
S'WDT'
p3315
tp3316
I734
s(g3046
g36
tp3317
I261
s(S'PRP$'
p3318
g13
tp3319
I60
s(g275
g975
tp3320
I7
s(S'MD'
p3321
S'JJR'
p3322
tp3323
I1
s(S'CD'
p3324
g231
tp3325
I609
s(g325
S'VB'
p3326
tp3327
I15
s(S'-RRB-'
p3328
S'WP'
p3329
tp3330
I4
s(S'VB'
p3331
g2191
tp3332
I2
s(g275
S'VBZ'
p3333
tp3334
I56
s(S'TO'
p3335
S'FW'
p3336
tp3337
I2
s(g275
g2271
tp3338
I2263
s(S'VBZ'
p3339
S'MD'
p3340
tp3341
I18
s(S'MD'
p3342
S'NNS'
p3343
tp3344
I4
s(S'-RRB-'
p3345
S'NNS'
p3346
tp3347
I33
s(g1105
g2284
tp3348
I1629
s(S'FW'
p3349
g30
tp3350
I21
s(S'RP'
p3351
g51
tp3352
I8
s(S'RB'
p3353
S'FW'
p3354
tp3355
I2
s(g1936
g10
tp3356
I16
s(g30
g129
tp3357
I46
s(S'CD'
p3358
S'``'
p3359
tp3360
I27
s(g30
S'NNPS'
p3361
tp3362
I56
s(g2950
S'DT'
p3363
tp3364
I38
s(S'DT'
p3365
S'NNS'
p3366
tp3367
I5987
s(g3261
S'IN'
p3368
tp3369
I2106
s(S'POS'
p3370
S'-RRB-'
p3371
tp3372
I8
s(S'PRP$'
p3373
S'NNPS'
p3374
tp3375
I5
s(S'CC'
p3376
g206
tp3377
I1
s(S'VBN'
p3378
S'PDT'
p3379
tp3380
I15
s(S'JJS'
p3381
S'PRP$'
p3382
tp3383
I1
s(S'CD'
p3384
S'VBZ'
p3385
tp3386
I97
s(S'CD'
p3387
g1451
tp3388
I2
s(S'JJ'
p3389
S'NNPS'
p3390
tp3391
I108
s(g910
S'TO'
p3392
tp3393
I7
s(g3096
S'TO'
p3394
tp3395
I136
s(S'RB'
p3396
g313
tp3397
I108
s(S'NN'
p3398
S'PRP$'
p3399
tp3400
I36
s(S'VBN'
p3401
S'WDT'
p3402
tp3403
I6
s(S'NNPS'
p3404
g10
tp3405
I21
s(S'VBN'
p3406
S'RBR'
p3407
tp3408
I67
s(S'NNPS'
p3409
g30
tp3410
I347
s(S'NNS'
p3411
S'CD'
p3412
tp3413
I97
s(S'PRP'
p3414
g4
tp3415
I544
s(g104
g4
tp3416
I12
s(S'PRP'
p3417
S'VBG'
p3418
tp3419
I45
s(S'JJR'
p3420
S'VBD'
p3421
tp3422
I7
s(g2165
S'DT'
p3423
tp3424
I105
s(S'PRP'
p3425
S'NNS'
p3426
tp3427
I19
s(g1019
g2073
tp3428
I341
s(S'RBR'
p3429
S'VB'
p3430
tp3431
I22
s(S'CC'
p3432
S'WDT'
p3433
tp3434
I25
s(S'VBG'
p3435
S'PDT'
p3436
tp3437
I17
s(S'JJ'
p3438
S'PRP$'
p3439
tp3440
I18
s(S'FW'
p3441
g13
tp3442
I2
s(S'FW'
p3443
S'CC'
p3444
tp3445
I3
s(S'PRP'
p3446
S'VBN'
p3447
tp3448
I43
s(S'NNS'
p3449
S'PDT'
p3450
tp3451
I3
s(g51
g4
tp3452
I90
s(S'RP'
p3453
S'CD'
p3454
tp3455
I53
s(S"''"
p3456
S'DT'
p3457
tp3458
I253
s(S'PRP'
p3459
S'-LRB-'
p3460
tp3461
I16
s(S'RBS'
p3462
g51
tp3463
I2
s(S'VBZ'
p3464
g13
tp3465
I91
s(S'CC'
p3466
S'UH'
p3467
tp3468
I2
s(S'SYM'
p3469
S'VBN'
p3470
tp3471
I1
s(S'``'
p3472
S'WRB'
p3473
tp3474
I80
s(S'MD'
p3475
g2453
tp3476
I2
s(S'JJS'
p3477
S'VBN'
p3478
tp3479
I9
s(S'WRB'
p3480
S'JJR'
p3481
tp3482
I3
s(g3157
g1531
tp3483
I1078
s(S'VBP'
p3484
S'RBR'
p3485
tp3486
I65
s(g51
S'RB'
p3487
tp3488
I263
s(g4
S'NN'
p3489
tp3490
I13
s(S'VBG'
p3491
S'JJS'
p3492
tp3493
I10
s(g2163
g2205
tp3494
I1014
s(S'VBZ'
p3495
g2153
tp3496
I5
s(g275
S'JJ'
p3497
tp3498
I1671
s(S'NN'
p3499
g652
tp3500
I2
s(S'WRB'
p3501
S'NNPS'
p3502
tp3503
I3
s(S'DT'
p3504
S'VBN'
p3505
tp3506
I689
s(S'VBP'
p3507
S'PDT'
p3508
tp3509
I8
s(S'TO'
p3510
S'NNS'
p3511
tp3512
I523
s(S'NNS'
p3513
g51
tp3514
I1123
s(S'DT'
p3515
g2976
tp3516
I43
s(S'UH'
p3517
S'PRP$'
p3518
tp3519
I1
s(g3407
S'``'
p3520
tp3521
I5
s(S'PRP'
p3522
S'POS'
p3523
tp3524
I18
s(g2553
g4
tp3525
I21
s(g30
S'``'
p3526
tp3527
I637
s(S'WP'
p3528
S'NNP'
p3529
tp3530
I44
s(S'VBZ'
p3531
S'VBP'
p3532
tp3533
I5
s(S'WP'
p3534
S'IN'
p3535
tp3536
I40
s(S'TO'
p3537
S'PRP'
p3538
tp3539
I111
s(S'WDT'
p3540
S'VBN'
p3541
tp3542
I4
s(S'JJ'
p3543
g652
tp3544
I5
s(S'VBZ'
p3545
g30
tp3546
I555
s(S'-RRB-'
p3547
g13
tp3548
I1
s(S'VBN'
p3549
S'VBP'
p3550
tp3551
I25
s(S'DT'
p3552
S'VB'
p3553
tp3554
I21
s(S'CD'
p3555
S'RB'
p3556
tp3557
I156
s(g275
S'TO'
p3558
tp3559
I138
s(S'NNP'
p3560
g13
tp3561
I24
s(S'RBR'
p3562
S'-RRB-'
p3563
tp3564
I1
s(S'WP$'
p3565
S'JJR'
p3566
tp3567
I1
s(S'JJS'
p3568
S'PDT'
p3569
tp3570
I3
s(g58
g2927
tp3571
I1
s(g1116
S'DT'
p3572
tp3573
I571
s(S'MD'
p3574
S'CC'
p3575
tp3576
I10
s(S'CC'
p3577
S'TO'
p3578
tp3579
I179
s(S'DT'
p3580
S'POS'
p3581
tp3582
I3
s(g30
g10
tp3583
I6
s(S'NN'
p3584
g2020
tp3585
I7
s(S'CC'
p3586
g3342
tp3587
I245
s(g275
S'NNS'
p3588
tp3589
I1669
s(S'-RRB-'
p3590
S'VBN'
p3591
tp3592
I10
s(S'VBZ'
p3593
S'FW'
p3594
tp3595
I1
s(S'-LRB-'
p3596
S'DT'
p3597
tp3598
I98
s(g867
S'NNS'
p3599
tp3600
I1128
s(g3315
S'VBP'
p3601
tp3602
I606
s(S'IN'
p3603
S'WP$'
p3604
tp3605
I2
s(S'JJR'
p3606
S'NNP'
p3607
tp3608
I56
s(S'JJR'
p3609
S'CD'
p3610
tp3611
I8
s(S'VB'
p3612
S'WP'
p3613
tp3614
I100
s(S'DT'
p3615
S'CC'
p3616
tp3617
I60
s(S'NN'
p3618
S'``'
p3619
tp3620
I317
s(g4
S'CC'
p3621
tp3622
I1
s(S'VB'
p3623
S'PRP$'
p3624
tp3625
I1159
s(S'NNS'
p3626
S'DT'
p3627
tp3628
I1014
s(S'RP'
p3629
S'JJS'
p3630
tp3631
I7
s(S'JJ'
p3632
S'UH'
p3633
tp3634
I1
s(g4
S'VB'
p3635
tp3636
I7
s(S'VBD'
p3637
g51
tp3638
I94
s(S'CD'
p3639
g957
tp3640
I315
s(S'JJR'
p3641
S'CC'
p3642
tp3643
I65
s(S'NNS'
p3644
S'-LRB-'
p3645
tp3646
I257
s(S'SYM'
p3647
S'VBZ'
p3648
tp3649
I3
s(S'DT'
p3650
g51
tp3651
I33
s(S'RBR'
p3652
S'CD'
p3653
tp3654
I1
s(S'WP$'
p3655
S'CD'
p3656
tp3657
I2
s(g51
S'JJR'
p3658
tp3659
I14
s(S'NNP'
p3660
g30
tp3661
I12688
s(S'VBG'
p3662
S'VBZ'
p3663
tp3664
I31
s(S'WP$'
p3665
S'``'
p3666
tp3667
I1
s(S'EX'
p3668
S'TO'
p3669
tp3670
I1
s(S'VBD'
p3671
S'``'
p3672
tp3673
I201
s(g275
S'VBG'
p3674
tp3675
I482
s(S'CD'
p3676
S'WP'
p3677
tp3678
I7
s(g4
S'VBZ'
p3679
tp3680
I1
s(S'``'
p3681
S'MD'
p3682
tp3683
I89
s(g487
g3297
tp3684
I69
s(S'WRB'
p3685
S'-LRB-'
p3686
tp3687
I1
s(S'VB'
p3688
S'JJS'
p3689
tp3690
I19
s(S'VBP'
p3691
S'EX'
p3692
tp3693
I24
s.