(dp0
S'PRP$'
p1
I8407
sS'VBG'
p2
I14846
sS'VBD'
p3
I29889
sS'STOP'
p4
I39832
sS'VBN'
p5
I20024
sS','
p6
I48727
sS"''"
p7
I6919
sS'VBP'
p8
I12491
sS'WDT'
p9
I4294
sS'JJ'
p10
I61217
sS'WP'
p11
I2363
sS'VBZ'
p12
I21672
sS'DT'
p13
I81832
sS'#'
p14
I142
sS'RP'
p15
I2662
sS'$'
p16
I7372
sS'NN'
p17
I132935
sS'FW'
p18
I234
sS'POS'
p19
I8701
sS'.'
p20
I39478
sS'TO'
p21
I22357
sS'PRP'
p22
I17436
sS'RB'
p23
I30970
sS'-LRB-'
p24
I1366
sS':'
p25
I4772
sS'NNS'
p26
I59856
sS'NNP'
p27
I91466
sS'``'
p28
I7092
sS'WRB'
p29
I2143
sS'CC'
p30
I23959
sS'LS'
p31
I36
sS'PDT'
p32
I368
sS'RBS'
p33
I451
sS'RBR'
p34
I1768
sS'CD'
p35
I36568
sS'EX'
p36
I863
sS'IN'
p37
I98554
sS'WP$'
p38
I168
sS'MD'
p39
I9803
sS'NNPS'
p40
I2673
sS'-RRB-'
p41
I1376
sS'JJS'
p42
I1947
sS'JJR'
p43
I3238
sS'SYM'
p44
I58
sS'VB'
p45
I26438
sS'UH'
p46
I97
s.